target datalayout = "e-m:e-p270:32:32-p271:32:32-p272:64:64-i64:64-i128:128-f80:128-n8:16:32:64-S128"
target triple = "x86_64-unknown-linux-gnu"

%"class.pbrt::Point2.100" = type { %"class.pbrt::Tuple2.101" }
%"class.pbrt::Tuple2.101" = type { float, float }
%class.anon.477 = type { i8 }
%class.anon.479 = type { i8 }

@_ZZN4pbrt5funcsL8gaussianENS_6Point2IfEEE3nrm = internal global double 0.000000e+00, align 8
@_ZGVZN4pbrt5funcsL8gaussianENS_6Point2IfEEE3nrm = internal global i64 0, align 8

; Function Attrs: mustprogress uwtable
define internal noundef double @"_ZZN4pbrt5funcsL8gaussianENS_6Point2IfEEENK3$_1clEddd"(ptr noundef nonnull align 1 dereferenceable(1) %this, double noundef %x, double noundef %mu, double noundef %sigma) #1 align 2 {
entry:
  %this.addr = alloca ptr, align 8
  %x.addr = alloca double, align 8
  %mu.addr = alloca double, align 8
  %sigma.addr = alloca double, align 8
  store ptr %this, ptr %this.addr, align 8
  store double %x, ptr %x.addr, align 8
  store double %mu, ptr %mu.addr, align 8
  store double %sigma, ptr %sigma.addr, align 8
  %0 = load double, ptr %sigma.addr, align 8
  %mul = fmul double 0x401921FB60000000, %0
  %1 = load double, ptr %sigma.addr, align 8
  %mul2 = fmul double %mul, %1
  %call = call double @sqrt(double noundef %mul2) #14
  %div = fdiv double 1.000000e+00, %call
  %2 = load double, ptr %x.addr, align 8
  %3 = load double, ptr %mu.addr, align 8
  %sub = fsub double %2, %3
  %call3 = call noundef double @_ZN4pbrt3SqrIdEET_S1_(double noundef %sub)
  %fneg = fneg double %call3
  %4 = load double, ptr %sigma.addr, align 8
  %mul4 = fmul double 2.000000e+00, %4
  %5 = load double, ptr %sigma.addr, align 8
  %mul5 = fmul double %mul4, %5
  %div6 = fdiv double %fneg, %mul5
  %call7 = call double @exp(double noundef %div6) #14
  %mul8 = fmul double %div, %call7
  ret double %mul8
}

; Function Attrs: mustprogress nounwind uwtable
define linkonce_odr dso_local noundef double @_ZN4pbrt3SqrIdEET_S1_(double noundef %v) #2 comdat {
entry:
  %v.addr = alloca double, align 8
  store double %v, ptr %v.addr, align 8
  %0 = load double, ptr %v.addr, align 8
  %1 = load double, ptr %v.addr, align 8
  %mul = fmul double %0, %1
  ret double %mul
}

; Function Attrs: mustprogress nounwind uwtable
define internal noundef double @"_ZZN4pbrt5funcsL8gaussianENS_6Point2IfEEENK3$_0clEdddd"(ptr noundef nonnull align 1 dereferenceable(1) %this, double noundef %x0, double noundef %x1, double noundef %mu, double noundef %sigma) #2 align 2 {
entry:
  %this.addr = alloca ptr, align 8
  %x0.addr = alloca double, align 8
  %x1.addr = alloca double, align 8
  %mu.addr = alloca double, align 8
  %sigma.addr = alloca double, align 8
  %sigmaRoot2 = alloca double, align 8
  store ptr %this, ptr %this.addr, align 8
  store double %x0, ptr %x0.addr, align 8
  store double %x1, ptr %x1.addr, align 8
  store double %mu, ptr %mu.addr, align 8
  store double %sigma, ptr %sigma.addr, align 8
  %0 = load double, ptr %sigma.addr, align 8
  %mul = fmul double %0, 0x3FF6A09E667F3BCC
  store double %mul, ptr %sigmaRoot2, align 8
  %1 = load double, ptr %mu.addr, align 8
  %2 = load double, ptr %x0.addr, align 8
  %sub = fsub double %1, %2
  %3 = load double, ptr %sigmaRoot2, align 8
  %div = fdiv double %sub, %3
  %call = call double @erf(double noundef %div) #14
  %4 = load double, ptr %mu.addr, align 8
  %5 = load double, ptr %x1.addr, align 8
  %sub2 = fsub double %4, %5
  %6 = load double, ptr %sigmaRoot2, align 8
  %div3 = fdiv double %sub2, %6
  %call4 = call double @erf(double noundef %div3) #14
  %sub5 = fsub double %call, %call4
  %mul6 = fmul double 5.000000e-01, %sub5
  ret double %mul6
}

; Function Attrs: mustprogress uwtable
define internal noundef double @_ZN4pbrt5funcsL8gaussianENS_6Point2IfEE(<2 x float> %p.coerce) #8 personality ptr @__gxx_personality_v0 {
entry:
  %p = alloca %"class.pbrt::Point2.100", align 4
  %Gaussian = alloca %class.anon.477, align 1
  %GaussianIntegral = alloca %class.anon.479, align 1
  %mu = alloca double, align 8
  %sigma = alloca double, align 8
  %exn.slot = alloca ptr, align 8
  %ehselector.slot = alloca i32, align 4
  %coerce.dive = getelementptr inbounds %"class.pbrt::Point2.100", ptr %p, i32 0, i32 0
  store <2 x float> %p.coerce, ptr %coerce.dive, align 4
  store double 5.000000e-01, ptr %mu, align 8
  store double 2.500000e-01, ptr %sigma, align 8
  %0 = load atomic i8, ptr @_ZGVZN4pbrt5funcsL8gaussianENS_6Point2IfEEE3nrm acquire, align 8
  %guard.uninitialized = icmp eq i8 %0, 0
  br i1 %guard.uninitialized, label %init.check, label %init.end, !prof !34

init.check:                                       ; preds = %entry
  %1 = call i32 @__cxa_guard_acquire(ptr @_ZGVZN4pbrt5funcsL8gaussianENS_6Point2IfEEE3nrm) #14
  %tobool = icmp ne i32 %1, 0
  br i1 %tobool, label %init, label %init.end

init:                                             ; preds = %init.check
  %2 = load double, ptr %mu, align 8
  %3 = load double, ptr %sigma, align 8
  %call = invoke noundef double @"_ZZN4pbrt5funcsL8gaussianENS_6Point2IfEEENK3$_0clEdddd"(ptr noundef nonnull align 1 dereferenceable(1) %GaussianIntegral, double noundef 0.000000e+00, double noundef 1.000000e+00, double noundef %2, double noundef %3)
          to label %invoke.cont unwind label %lpad

invoke.cont:                                      ; preds = %init
  %call2 = invoke noundef double @_ZN4pbrt3SqrIdEET_S1_(double noundef %call)
          to label %invoke.cont1 unwind label %lpad

invoke.cont1:                                     ; preds = %invoke.cont
  store double %call2, ptr @_ZZN4pbrt5funcsL8gaussianENS_6Point2IfEEE3nrm, align 8
  call void @__cxa_guard_release(ptr @_ZGVZN4pbrt5funcsL8gaussianENS_6Point2IfEEE3nrm) #14
  br label %init.end

init.end:                                         ; preds = %invoke.cont1, %init.check, %entry
  %x = getelementptr inbounds %"class.pbrt::Tuple2.101", ptr %p, i32 0, i32 0
  %4 = load float, ptr %x, align 4
  %conv = fpext float %4 to double
  %5 = load double, ptr %mu, align 8
  %6 = load double, ptr %sigma, align 8
  %call3 = call noundef double @"_ZZN4pbrt5funcsL8gaussianENS_6Point2IfEEENK3$_1clEddd"(ptr noundef nonnull align 1 dereferenceable(1) %Gaussian, double noundef %conv, double noundef %5, double noundef %6)
  %y = getelementptr inbounds %"class.pbrt::Tuple2.101", ptr %p, i32 0, i32 1
  %7 = load float, ptr %y, align 4
  %conv4 = fpext float %7 to double
  %8 = load double, ptr %mu, align 8
  %9 = load double, ptr %sigma, align 8
  %call5 = call noundef double @"_ZZN4pbrt5funcsL8gaussianENS_6Point2IfEEENK3$_1clEddd"(ptr noundef nonnull align 1 dereferenceable(1) %Gaussian, double noundef %conv4, double noundef %8, double noundef %9)
  %mul = fmul double %call3, %call5
  %10 = load double, ptr @_ZZN4pbrt5funcsL8gaussianENS_6Point2IfEEE3nrm, align 8
  %div = fdiv double %mul, %10
  ret double %div

lpad:                                             ; preds = %invoke.cont, %init
  %11 = landingpad { ptr, i32 }
          cleanup
  %12 = extractvalue { ptr, i32 } %11, 0
  store ptr %12, ptr %exn.slot, align 8
  %13 = extractvalue { ptr, i32 } %11, 1
  store i32 %13, ptr %ehselector.slot, align 4
  call void @__cxa_guard_abort(ptr @_ZGVZN4pbrt5funcsL8gaussianENS_6Point2IfEEE3nrm) #14
  br label %eh.resume

eh.resume:                                        ; preds = %lpad
  %exn = load ptr, ptr %exn.slot, align 8
  %sel = load i32, ptr %ehselector.slot, align 4
  %lpad.val = insertvalue { ptr, i32 } poison, ptr %exn, 0
  %lpad.val6 = insertvalue { ptr, i32 } %lpad.val, i32 %sel, 1
  resume { ptr, i32 } %lpad.val6
}