; Function Attrs: mustprogress nofree nounwind uwtable
define internal noundef double @_ZN4pbrt5funcsL8gaussianENS_6Point2IfEE(<2 x float> %p.coerce) #17 personality ptr @__gxx_personality_v0 {
entry:
  %0 = load atomic i8, ptr @_ZGVZN4pbrt5funcsL8gaussianENS_6Point2IfEEE3nrm acquire, align 8
  %guard.uninitialized = icmp eq i8 %0, 0
  br i1 %guard.uninitialized, label %init.check, label %init.end, !prof !472

init.check:                                       ; preds = %entry
  %1 = tail call i32 @__cxa_guard_acquire(ptr nonnull @_ZGVZN4pbrt5funcsL8gaussianENS_6Point2IfEEE3nrm) #31
  %tobool.not = icmp eq i32 %1, 0
  br i1 %tobool.not, label %init.end, label %init

init:                                             ; preds = %init.check
  %call.i = tail call double @erf(double noundef 0x3FF6A09E667F3BCD) #31
  %call4.i = tail call double @erf(double noundef 0xBFF6A09E667F3BCD) #31
  %sub5.i = fsub double %call.i, %call4.i
  %mul6.i = fmul double %sub5.i, 5.000000e-01
  %mul.i = fmul double %mul6.i, %mul6.i
  store double %mul.i, ptr @_ZZN4pbrt5funcsL8gaussianENS_6Point2IfEEE3nrm, align 8
  tail call void @__cxa_guard_release(ptr nonnull @_ZGVZN4pbrt5funcsL8gaussianENS_6Point2IfEEE3nrm) #31
  br label %init.end

init.end:                                         ; preds = %init, %init.check, %entry
  %p.sroa.0.0.vec.extract = extractelement <2 x float> %p.coerce, i64 0
  %conv = fpext float %p.sroa.0.0.vec.extract to double
  %sub.i = fadd double %conv, -5.000000e-01
  %mul.i.i = fmul double %sub.i, %sub.i
  %div6.i = fmul double %mul.i.i, -8.000000e+00
  %call7.i = tail call double @exp(double noundef %div6.i) #31
  %mul8.i = fmul double %call7.i, 0x3FF988452DDE6C30
  %p.sroa.0.4.vec.extract = extractelement <2 x float> %p.coerce, i64 1
  %conv4 = fpext float %p.sroa.0.4.vec.extract to double
  %sub.i5 = fadd double %conv4, -5.000000e-01
  %mul.i.i6 = fmul double %sub.i5, %sub.i5
  %div6.i7 = fmul double %mul.i.i6, -8.000000e+00
  %call7.i8 = tail call double @exp(double noundef %div6.i7) #31
  %mul8.i9 = fmul double %call7.i8, 0x3FF988452DDE6C30
  %mul = fmul double %mul8.i, %mul8.i9
  %2 = load double, ptr @_ZZN4pbrt5funcsL8gaussianENS_6Point2IfEEE3nrm, align 8
  %div = fdiv double %mul, %2
  ret double %div
}